In archive libArduinoIOExpanderDriver.a:

IOExpanderMCP23X17.o:     file format elf32-avr

Sections:
Idx Name          Size      VMA       LMA       File off  Algn
  0 .text         000001e6  00000000  00000000  00000034  2**0
                  CONTENTS, ALLOC, LOAD, RELOC, READONLY, CODE
  1 .data         00000000  00000000  00000000  0000021a  2**0
                  CONTENTS, ALLOC, LOAD, DATA
  2 .bss          00000000  00000000  00000000  0000021a  2**0
                  ALLOC
Disassembly of section .text:

00000000 <_ZN18IOExpanderMCP23X1712readRegisterENS_8RegisterE>:
   0:	ff 92       	push	r15
   2:	0f 93       	push	r16
   4:	1f 93       	push	r17
   6:	8c 01       	movw	r16, r24
   8:	f6 2e       	mov	r15, r22
   a:	80 e0       	ldi	r24, 0x00	; 0
   c:	90 e0       	ldi	r25, 0x00	; 0
   e:	f8 01       	movw	r30, r16
  10:	60 81       	ld	r22, Z
  12:	0e 94 00 00 	call	0	; 0x0 <_ZN18IOExpanderMCP23X1712readRegisterENS_8RegisterE>
  16:	80 e0       	ldi	r24, 0x00	; 0
  18:	90 e0       	ldi	r25, 0x00	; 0
  1a:	6f 2d       	mov	r22, r15
  1c:	0e 94 00 00 	call	0	; 0x0 <_ZN18IOExpanderMCP23X1712readRegisterENS_8RegisterE>
  20:	80 e0       	ldi	r24, 0x00	; 0
  22:	90 e0       	ldi	r25, 0x00	; 0
  24:	60 e0       	ldi	r22, 0x00	; 0
  26:	0e 94 00 00 	call	0	; 0x0 <_ZN18IOExpanderMCP23X1712readRegisterENS_8RegisterE>
  2a:	80 e0       	ldi	r24, 0x00	; 0
  2c:	90 e0       	ldi	r25, 0x00	; 0
  2e:	f8 01       	movw	r30, r16
  30:	60 81       	ld	r22, Z
  32:	41 e0       	ldi	r20, 0x01	; 1
  34:	0e 94 00 00 	call	0	; 0x0 <_ZN18IOExpanderMCP23X1712readRegisterENS_8RegisterE>
  38:	80 e0       	ldi	r24, 0x00	; 0
  3a:	90 e0       	ldi	r25, 0x00	; 0
  3c:	0e 94 00 00 	call	0	; 0x0 <_ZN18IOExpanderMCP23X1712readRegisterENS_8RegisterE>
  40:	89 2b       	or	r24, r25
  42:	01 f0       	breq	.+0      	; 0x44 <_ZN18IOExpanderMCP23X1712readRegisterENS_8RegisterE+0x44>
  44:	80 e0       	ldi	r24, 0x00	; 0
  46:	90 e0       	ldi	r25, 0x00	; 0
  48:	0e 94 00 00 	call	0	; 0x0 <_ZN18IOExpanderMCP23X1712readRegisterENS_8RegisterE>
  4c:	1f 91       	pop	r17
  4e:	0f 91       	pop	r16
  50:	ff 90       	pop	r15
  52:	08 95       	ret

00000054 <_ZN18IOExpanderMCP23X1711digitalReadEh>:
  54:	1f 93       	push	r17
  56:	16 2f       	mov	r17, r22
  58:	68 30       	cpi	r22, 0x08	; 8
  5a:	00 f0       	brcs	.+0      	; 0x5c <_ZN18IOExpanderMCP23X1711digitalReadEh+0x8>
  5c:	63 e1       	ldi	r22, 0x13	; 19
  5e:	00 c0       	rjmp	.+0      	; 0x60 <_ZN18IOExpanderMCP23X1711digitalReadEh+0xc>
  60:	62 e1       	ldi	r22, 0x12	; 18
  62:	0e 94 00 00 	call	0	; 0x0 <_ZN18IOExpanderMCP23X1712readRegisterENS_8RegisterE>
  66:	90 e0       	ldi	r25, 0x00	; 0
  68:	17 70       	andi	r17, 0x07	; 7
  6a:	00 c0       	rjmp	.+0      	; 0x6c <_ZN18IOExpanderMCP23X1711digitalReadEh+0x18>
  6c:	95 95       	asr	r25
  6e:	87 95       	ror	r24
  70:	1a 95       	dec	r17
  72:	02 f4       	brpl	.+0      	; 0x74 <_ZN18IOExpanderMCP23X1711digitalReadEh+0x20>
  74:	81 70       	andi	r24, 0x01	; 1
  76:	1f 91       	pop	r17
  78:	08 95       	ret

0000007a <_ZN18IOExpanderMCP23X1713writeRegisterENS_8RegisterEh>:
  7a:	ef 92       	push	r14
  7c:	ff 92       	push	r15
  7e:	0f 93       	push	r16
  80:	1f 93       	push	r17
  82:	fc 01       	movw	r30, r24
  84:	f6 2e       	mov	r15, r22
  86:	e4 2e       	mov	r14, r20
  88:	00 e0       	ldi	r16, 0x00	; 0
  8a:	10 e0       	ldi	r17, 0x00	; 0
  8c:	c8 01       	movw	r24, r16
  8e:	60 81       	ld	r22, Z
  90:	0e 94 00 00 	call	0	; 0x0 <_ZN18IOExpanderMCP23X1712readRegisterENS_8RegisterE>
  94:	c8 01       	movw	r24, r16
  96:	6f 2d       	mov	r22, r15
  98:	0e 94 00 00 	call	0	; 0x0 <_ZN18IOExpanderMCP23X1712readRegisterENS_8RegisterE>
  9c:	c8 01       	movw	r24, r16
  9e:	6e 2d       	mov	r22, r14
  a0:	0e 94 00 00 	call	0	; 0x0 <_ZN18IOExpanderMCP23X1712readRegisterENS_8RegisterE>
  a4:	c8 01       	movw	r24, r16
  a6:	0e 94 00 00 	call	0	; 0x0 <_ZN18IOExpanderMCP23X1712readRegisterENS_8RegisterE>
  aa:	1f 91       	pop	r17
  ac:	0f 91       	pop	r16
  ae:	ff 90       	pop	r15
  b0:	ef 90       	pop	r14
  b2:	08 95       	ret

000000b4 <_ZN18IOExpanderMCP23X1721configureRegisterBitsENS_8RegisterEhh>:
  b4:	df 92       	push	r13
  b6:	ef 92       	push	r14
  b8:	ff 92       	push	r15
  ba:	0f 93       	push	r16
  bc:	1f 93       	push	r17
  be:	7c 01       	movw	r14, r24
  c0:	d6 2e       	mov	r13, r22
  c2:	04 2f       	mov	r16, r20
  c4:	12 2f       	mov	r17, r18
  c6:	0e 94 00 00 	call	0	; 0x0 <_ZN18IOExpanderMCP23X1712readRegisterENS_8RegisterE>
  ca:	40 2f       	mov	r20, r16
  cc:	40 95       	com	r20
  ce:	48 23       	and	r20, r24
  d0:	10 23       	and	r17, r16
  d2:	41 2b       	or	r20, r17
  d4:	c7 01       	movw	r24, r14
  d6:	6d 2d       	mov	r22, r13
  d8:	0e 94 00 00 	call	0	; 0x0 <_ZN18IOExpanderMCP23X1712readRegisterENS_8RegisterE>
  dc:	1f 91       	pop	r17
  de:	0f 91       	pop	r16
  e0:	ff 90       	pop	r15
  e2:	ef 90       	pop	r14
  e4:	df 90       	pop	r13
  e6:	08 95       	ret

000000e8 <_ZN18IOExpanderMCP23X1715setPinInterruptEhb>:
  e8:	68 30       	cpi	r22, 0x08	; 8
  ea:	00 f0       	brcs	.+0      	; 0xec <_ZN18IOExpanderMCP23X1715setPinInterruptEhb+0x4>
  ec:	35 e0       	ldi	r19, 0x05	; 5
  ee:	00 c0       	rjmp	.+0      	; 0xf0 <_ZN18IOExpanderMCP23X1715setPinInterruptEhb+0x8>
  f0:	34 e0       	ldi	r19, 0x04	; 4
  f2:	44 23       	and	r20, r20
  f4:	01 f4       	brne	.+0      	; 0xf6 <_ZN18IOExpanderMCP23X1715setPinInterruptEhb+0xe>
  f6:	20 e0       	ldi	r18, 0x00	; 0
  f8:	00 c0       	rjmp	.+0      	; 0xfa <_ZN18IOExpanderMCP23X1715setPinInterruptEhb+0x12>
  fa:	2f ef       	ldi	r18, 0xFF	; 255
  fc:	67 70       	andi	r22, 0x07	; 7
  fe:	41 e0       	ldi	r20, 0x01	; 1
 100:	50 e0       	ldi	r21, 0x00	; 0
 102:	00 c0       	rjmp	.+0      	; 0x104 <_ZN18IOExpanderMCP23X1715setPinInterruptEhb+0x1c>
 104:	44 0f       	add	r20, r20
 106:	55 1f       	adc	r21, r21
 108:	6a 95       	dec	r22
 10a:	02 f4       	brpl	.+0      	; 0x10c <_ZN18IOExpanderMCP23X1715setPinInterruptEhb+0x24>
 10c:	63 2f       	mov	r22, r19
 10e:	0e 94 00 00 	call	0	; 0x0 <_ZN18IOExpanderMCP23X1712readRegisterENS_8RegisterE>
 112:	08 95       	ret

00000114 <_ZN18IOExpanderMCP23X1714setPinPolarityEhb>:
 114:	68 30       	cpi	r22, 0x08	; 8
 116:	00 f0       	brcs	.+0      	; 0x118 <_ZN18IOExpanderMCP23X1714setPinPolarityEhb+0x4>
 118:	33 e0       	ldi	r19, 0x03	; 3
 11a:	00 c0       	rjmp	.+0      	; 0x11c <_ZN18IOExpanderMCP23X1714setPinPolarityEhb+0x8>
 11c:	32 e0       	ldi	r19, 0x02	; 2
 11e:	44 23       	and	r20, r20
 120:	01 f4       	brne	.+0      	; 0x122 <_ZN18IOExpanderMCP23X1714setPinPolarityEhb+0xe>
 122:	20 e0       	ldi	r18, 0x00	; 0
 124:	00 c0       	rjmp	.+0      	; 0x126 <_ZN18IOExpanderMCP23X1714setPinPolarityEhb+0x12>
 126:	2f ef       	ldi	r18, 0xFF	; 255
 128:	67 70       	andi	r22, 0x07	; 7
 12a:	41 e0       	ldi	r20, 0x01	; 1
 12c:	50 e0       	ldi	r21, 0x00	; 0
 12e:	00 c0       	rjmp	.+0      	; 0x130 <_ZN18IOExpanderMCP23X1714setPinPolarityEhb+0x1c>
 130:	44 0f       	add	r20, r20
 132:	55 1f       	adc	r21, r21
 134:	6a 95       	dec	r22
 136:	02 f4       	brpl	.+0      	; 0x138 <_ZN18IOExpanderMCP23X1714setPinPolarityEhb+0x24>
 138:	63 2f       	mov	r22, r19
 13a:	0e 94 00 00 	call	0	; 0x0 <_ZN18IOExpanderMCP23X1712readRegisterENS_8RegisterE>
 13e:	08 95       	ret

00000140 <_ZN18IOExpanderMCP23X1712setPinPullUpEhb>:
 140:	68 30       	cpi	r22, 0x08	; 8
 142:	00 f0       	brcs	.+0      	; 0x144 <_ZN18IOExpanderMCP23X1712setPinPullUpEhb+0x4>
 144:	3d e0       	ldi	r19, 0x0D	; 13
 146:	00 c0       	rjmp	.+0      	; 0x148 <_ZN18IOExpanderMCP23X1712setPinPullUpEhb+0x8>
 148:	3c e0       	ldi	r19, 0x0C	; 12
 14a:	44 23       	and	r20, r20
 14c:	01 f4       	brne	.+0      	; 0x14e <_ZN18IOExpanderMCP23X1712setPinPullUpEhb+0xe>
 14e:	20 e0       	ldi	r18, 0x00	; 0
 150:	00 c0       	rjmp	.+0      	; 0x152 <_ZN18IOExpanderMCP23X1712setPinPullUpEhb+0x12>
 152:	2f ef       	ldi	r18, 0xFF	; 255
 154:	67 70       	andi	r22, 0x07	; 7
 156:	41 e0       	ldi	r20, 0x01	; 1
 158:	50 e0       	ldi	r21, 0x00	; 0
 15a:	00 c0       	rjmp	.+0      	; 0x15c <_ZN18IOExpanderMCP23X1712setPinPullUpEhb+0x1c>
 15c:	44 0f       	add	r20, r20
 15e:	55 1f       	adc	r21, r21
 160:	6a 95       	dec	r22
 162:	02 f4       	brpl	.+0      	; 0x164 <_ZN18IOExpanderMCP23X1712setPinPullUpEhb+0x24>
 164:	63 2f       	mov	r22, r19
 166:	0e 94 00 00 	call	0	; 0x0 <_ZN18IOExpanderMCP23X1712readRegisterENS_8RegisterE>
 16a:	08 95       	ret

0000016c <_ZN18IOExpanderMCP23X1712digitalWriteEhb>:
 16c:	68 30       	cpi	r22, 0x08	; 8
 16e:	00 f0       	brcs	.+0      	; 0x170 <_ZN18IOExpanderMCP23X1712digitalWriteEhb+0x4>
 170:	33 e1       	ldi	r19, 0x13	; 19
 172:	00 c0       	rjmp	.+0      	; 0x174 <_ZN18IOExpanderMCP23X1712digitalWriteEhb+0x8>
 174:	32 e1       	ldi	r19, 0x12	; 18
 176:	44 23       	and	r20, r20
 178:	01 f4       	brne	.+0      	; 0x17a <_ZN18IOExpanderMCP23X1712digitalWriteEhb+0xe>
 17a:	20 e0       	ldi	r18, 0x00	; 0
 17c:	00 c0       	rjmp	.+0      	; 0x17e <_ZN18IOExpanderMCP23X1712digitalWriteEhb+0x12>
 17e:	2f ef       	ldi	r18, 0xFF	; 255
 180:	67 70       	andi	r22, 0x07	; 7
 182:	41 e0       	ldi	r20, 0x01	; 1
 184:	50 e0       	ldi	r21, 0x00	; 0
 186:	00 c0       	rjmp	.+0      	; 0x188 <_ZN18IOExpanderMCP23X1712digitalWriteEhb+0x1c>
 188:	44 0f       	add	r20, r20
 18a:	55 1f       	adc	r21, r21
 18c:	6a 95       	dec	r22
 18e:	02 f4       	brpl	.+0      	; 0x190 <_ZN18IOExpanderMCP23X1712digitalWriteEhb+0x24>
 190:	63 2f       	mov	r22, r19
 192:	0e 94 00 00 	call	0	; 0x0 <_ZN18IOExpanderMCP23X1712readRegisterENS_8RegisterE>
 196:	08 95       	ret

00000198 <_ZN18IOExpanderMCP23X177pinModeEhb>:
 198:	44 23       	and	r20, r20
 19a:	01 f4       	brne	.+0      	; 0x19c <_ZN18IOExpanderMCP23X177pinModeEhb+0x4>
 19c:	20 e0       	ldi	r18, 0x00	; 0
 19e:	00 c0       	rjmp	.+0      	; 0x1a0 <_ZN18IOExpanderMCP23X177pinModeEhb+0x8>
 1a0:	2f ef       	ldi	r18, 0xFF	; 255
 1a2:	30 e0       	ldi	r19, 0x00	; 0
 1a4:	68 30       	cpi	r22, 0x08	; 8
 1a6:	00 f0       	brcs	.+0      	; 0x1a8 <_ZN18IOExpanderMCP23X177pinModeEhb+0x10>
 1a8:	31 e0       	ldi	r19, 0x01	; 1
 1aa:	67 70       	andi	r22, 0x07	; 7
 1ac:	41 e0       	ldi	r20, 0x01	; 1
 1ae:	50 e0       	ldi	r21, 0x00	; 0
 1b0:	00 c0       	rjmp	.+0      	; 0x1b2 <_ZN18IOExpanderMCP23X177pinModeEhb+0x1a>
 1b2:	44 0f       	add	r20, r20
 1b4:	55 1f       	adc	r21, r21
 1b6:	6a 95       	dec	r22
 1b8:	02 f4       	brpl	.+0      	; 0x1ba <_ZN18IOExpanderMCP23X177pinModeEhb+0x22>
 1ba:	63 2f       	mov	r22, r19
 1bc:	0e 94 00 00 	call	0	; 0x0 <_ZN18IOExpanderMCP23X1712readRegisterENS_8RegisterE>
 1c0:	08 95       	ret

000001c2 <_ZN18IOExpanderMCP23X178portModeENS_4PortEh>:
 1c2:	20 e0       	ldi	r18, 0x00	; 0
 1c4:	62 31       	cpi	r22, 0x12	; 18
 1c6:	01 f0       	breq	.+0      	; 0x1c8 <_ZN18IOExpanderMCP23X178portModeENS_4PortEh+0x6>
 1c8:	21 e0       	ldi	r18, 0x01	; 1
 1ca:	62 2f       	mov	r22, r18
 1cc:	0e 94 00 00 	call	0	; 0x0 <_ZN18IOExpanderMCP23X1712readRegisterENS_8RegisterE>
 1d0:	08 95       	ret

000001d2 <_ZN18IOExpanderMCP23X175beginEh>:
 1d2:	fc 01       	movw	r30, r24
 1d4:	86 2f       	mov	r24, r22
 1d6:	87 70       	andi	r24, 0x07	; 7
 1d8:	80 62       	ori	r24, 0x20	; 32
 1da:	80 83       	st	Z, r24
 1dc:	80 e0       	ldi	r24, 0x00	; 0
 1de:	90 e0       	ldi	r25, 0x00	; 0
 1e0:	0e 94 00 00 	call	0	; 0x0 <_ZN18IOExpanderMCP23X1712readRegisterENS_8RegisterE>
 1e4:	08 95       	ret

IOExpander.o:     file format elf32-avr

Sections:
Idx Name          Size      VMA       LMA       File off  Algn
  0 .text         00000000  00000000  00000000  00000034  2**0
                  CONTENTS, ALLOC, LOAD, READONLY, CODE
  1 .data         00000000  00000000  00000000  00000034  2**0
                  CONTENTS, ALLOC, LOAD, DATA
  2 .bss          00000000  00000000  00000000  00000034  2**0
                  ALLOC
