In archive libArduinoIOExpanderDriver.a:

IOExpanderMCP23X17.o:     file format elf32-avr

Sections:
Idx Name          Size      VMA       LMA       File off  Algn
  0 .text         000002a6  00000000  00000000  00000034  2**0
                  CONTENTS, ALLOC, LOAD, RELOC, READONLY, CODE
  1 .data         00000000  00000000  00000000  000002da  2**0
                  CONTENTS, ALLOC, LOAD, DATA
  2 .bss          00000000  00000000  00000000  000002da  2**0
                  ALLOC
Disassembly of section .text:

00000000 <_ZN18IOExpanderMCP23X1714continuousReadEv>:
   0:	80 e0       	ldi	r24, 0x00	; 0
   2:	90 e0       	ldi	r25, 0x00	; 0
   4:	0e 94 00 00 	call	0	; 0x0 <_ZN18IOExpanderMCP23X1714continuousReadEv>
   8:	89 2b       	or	r24, r25
   a:	01 f0       	breq	.+0      	; 0xc <_ZN18IOExpanderMCP23X1714continuousReadEv+0xc>
   c:	80 e0       	ldi	r24, 0x00	; 0
   e:	90 e0       	ldi	r25, 0x00	; 0
  10:	0e 94 00 00 	call	0	; 0x0 <_ZN18IOExpanderMCP23X1714continuousReadEv>
  14:	08 95       	ret

00000016 <_ZN18IOExpanderMCP23X1712readRegisterENS_8RegisterE>:
  16:	ff 92       	push	r15
  18:	0f 93       	push	r16
  1a:	1f 93       	push	r17
  1c:	8c 01       	movw	r16, r24
  1e:	f6 2e       	mov	r15, r22
  20:	80 e0       	ldi	r24, 0x00	; 0
  22:	90 e0       	ldi	r25, 0x00	; 0
  24:	f8 01       	movw	r30, r16
  26:	60 81       	ld	r22, Z
  28:	0e 94 00 00 	call	0	; 0x0 <_ZN18IOExpanderMCP23X1714continuousReadEv>
  2c:	80 e0       	ldi	r24, 0x00	; 0
  2e:	90 e0       	ldi	r25, 0x00	; 0
  30:	6f 2d       	mov	r22, r15
  32:	0e 94 00 00 	call	0	; 0x0 <_ZN18IOExpanderMCP23X1714continuousReadEv>
  36:	80 e0       	ldi	r24, 0x00	; 0
  38:	90 e0       	ldi	r25, 0x00	; 0
  3a:	60 e0       	ldi	r22, 0x00	; 0
  3c:	0e 94 00 00 	call	0	; 0x0 <_ZN18IOExpanderMCP23X1714continuousReadEv>
  40:	80 e0       	ldi	r24, 0x00	; 0
  42:	90 e0       	ldi	r25, 0x00	; 0
  44:	f8 01       	movw	r30, r16
  46:	60 81       	ld	r22, Z
  48:	41 e0       	ldi	r20, 0x01	; 1
  4a:	0e 94 00 00 	call	0	; 0x0 <_ZN18IOExpanderMCP23X1714continuousReadEv>
  4e:	80 e0       	ldi	r24, 0x00	; 0
  50:	90 e0       	ldi	r25, 0x00	; 0
  52:	0e 94 00 00 	call	0	; 0x0 <_ZN18IOExpanderMCP23X1714continuousReadEv>
  56:	89 2b       	or	r24, r25
  58:	01 f0       	breq	.+0      	; 0x5a <_ZN18IOExpanderMCP23X1712readRegisterENS_8RegisterE+0x44>
  5a:	80 e0       	ldi	r24, 0x00	; 0
  5c:	90 e0       	ldi	r25, 0x00	; 0
  5e:	0e 94 00 00 	call	0	; 0x0 <_ZN18IOExpanderMCP23X1714continuousReadEv>
  62:	1f 91       	pop	r17
  64:	0f 91       	pop	r16
  66:	ff 90       	pop	r15
  68:	08 95       	ret

0000006a <_ZN18IOExpanderMCP23X1711digitalReadEh>:
  6a:	1f 93       	push	r17
  6c:	16 2f       	mov	r17, r22
  6e:	68 30       	cpi	r22, 0x08	; 8
  70:	00 f0       	brcs	.+0      	; 0x72 <_ZN18IOExpanderMCP23X1711digitalReadEh+0x8>
  72:	63 e1       	ldi	r22, 0x13	; 19
  74:	00 c0       	rjmp	.+0      	; 0x76 <_ZN18IOExpanderMCP23X1711digitalReadEh+0xc>
  76:	62 e1       	ldi	r22, 0x12	; 18
  78:	0e 94 00 00 	call	0	; 0x0 <_ZN18IOExpanderMCP23X1714continuousReadEv>
  7c:	90 e0       	ldi	r25, 0x00	; 0
  7e:	17 70       	andi	r17, 0x07	; 7
  80:	00 c0       	rjmp	.+0      	; 0x82 <_ZN18IOExpanderMCP23X1711digitalReadEh+0x18>
  82:	95 95       	asr	r25
  84:	87 95       	ror	r24
  86:	1a 95       	dec	r17
  88:	02 f4       	brpl	.+0      	; 0x8a <_ZN18IOExpanderMCP23X1711digitalReadEh+0x20>
  8a:	81 70       	andi	r24, 0x01	; 1
  8c:	1f 91       	pop	r17
  8e:	08 95       	ret

00000090 <_ZN18IOExpanderMCP23X1713writeRegisterENS_8RegisterEh>:
  90:	ef 92       	push	r14
  92:	ff 92       	push	r15
  94:	0f 93       	push	r16
  96:	1f 93       	push	r17
  98:	fc 01       	movw	r30, r24
  9a:	f6 2e       	mov	r15, r22
  9c:	e4 2e       	mov	r14, r20
  9e:	00 e0       	ldi	r16, 0x00	; 0
  a0:	10 e0       	ldi	r17, 0x00	; 0
  a2:	c8 01       	movw	r24, r16
  a4:	60 81       	ld	r22, Z
  a6:	0e 94 00 00 	call	0	; 0x0 <_ZN18IOExpanderMCP23X1714continuousReadEv>
  aa:	c8 01       	movw	r24, r16
  ac:	6f 2d       	mov	r22, r15
  ae:	0e 94 00 00 	call	0	; 0x0 <_ZN18IOExpanderMCP23X1714continuousReadEv>
  b2:	c8 01       	movw	r24, r16
  b4:	6e 2d       	mov	r22, r14
  b6:	0e 94 00 00 	call	0	; 0x0 <_ZN18IOExpanderMCP23X1714continuousReadEv>
  ba:	c8 01       	movw	r24, r16
  bc:	0e 94 00 00 	call	0	; 0x0 <_ZN18IOExpanderMCP23X1714continuousReadEv>
  c0:	1f 91       	pop	r17
  c2:	0f 91       	pop	r16
  c4:	ff 90       	pop	r15
  c6:	ef 90       	pop	r14
  c8:	08 95       	ret

000000ca <_ZN18IOExpanderMCP23X1721configureRegisterBitsENS_8RegisterEhh>:
  ca:	df 92       	push	r13
  cc:	ef 92       	push	r14
  ce:	ff 92       	push	r15
  d0:	0f 93       	push	r16
  d2:	1f 93       	push	r17
  d4:	7c 01       	movw	r14, r24
  d6:	d6 2e       	mov	r13, r22
  d8:	04 2f       	mov	r16, r20
  da:	12 2f       	mov	r17, r18
  dc:	0e 94 00 00 	call	0	; 0x0 <_ZN18IOExpanderMCP23X1714continuousReadEv>
  e0:	40 2f       	mov	r20, r16
  e2:	40 95       	com	r20
  e4:	48 23       	and	r20, r24
  e6:	10 23       	and	r17, r16
  e8:	41 2b       	or	r20, r17
  ea:	c7 01       	movw	r24, r14
  ec:	6d 2d       	mov	r22, r13
  ee:	0e 94 00 00 	call	0	; 0x0 <_ZN18IOExpanderMCP23X1714continuousReadEv>
  f2:	1f 91       	pop	r17
  f4:	0f 91       	pop	r16
  f6:	ff 90       	pop	r15
  f8:	ef 90       	pop	r14
  fa:	df 90       	pop	r13
  fc:	08 95       	ret

000000fe <_ZN18IOExpanderMCP23X1726setSequentialOperationModeENS_23SequentialOperationModeE>:
  fe:	fc 01       	movw	r30, r24
 100:	26 2f       	mov	r18, r22
 102:	81 81       	ldd	r24, Z+1	; 0x01
 104:	68 17       	cp	r22, r24
 106:	01 f0       	breq	.+0      	; 0x108 <_ZN18IOExpanderMCP23X1726setSequentialOperationModeENS_23SequentialOperationModeE+0xa>
 108:	61 83       	std	Z+1, r22	; 0x01
 10a:	cf 01       	movw	r24, r30
 10c:	6a e0       	ldi	r22, 0x0A	; 10
 10e:	40 e2       	ldi	r20, 0x20	; 32
 110:	0e 94 00 00 	call	0	; 0x0 <_ZN18IOExpanderMCP23X1714continuousReadEv>
 114:	08 95       	ret

00000116 <_ZN18IOExpanderMCP23X1719continuousReadStartENS_8RegisterEi>:
 116:	bf 92       	push	r11
 118:	cf 92       	push	r12
 11a:	df 92       	push	r13
 11c:	ef 92       	push	r14
 11e:	ff 92       	push	r15
 120:	0f 93       	push	r16
 122:	1f 93       	push	r17
 124:	7c 01       	movw	r14, r24
 126:	b6 2e       	mov	r11, r22
 128:	6a 01       	movw	r12, r20
 12a:	6f ef       	ldi	r22, 0xFF	; 255
 12c:	0e 94 00 00 	call	0	; 0x0 <_ZN18IOExpanderMCP23X1714continuousReadEv>
 130:	00 e0       	ldi	r16, 0x00	; 0
 132:	10 e0       	ldi	r17, 0x00	; 0
 134:	c8 01       	movw	r24, r16
 136:	f7 01       	movw	r30, r14
 138:	60 81       	ld	r22, Z
 13a:	0e 94 00 00 	call	0	; 0x0 <_ZN18IOExpanderMCP23X1714continuousReadEv>
 13e:	c8 01       	movw	r24, r16
 140:	6b 2d       	mov	r22, r11
 142:	0e 94 00 00 	call	0	; 0x0 <_ZN18IOExpanderMCP23X1714continuousReadEv>
 146:	c8 01       	movw	r24, r16
 148:	60 e0       	ldi	r22, 0x00	; 0
 14a:	0e 94 00 00 	call	0	; 0x0 <_ZN18IOExpanderMCP23X1714continuousReadEv>
 14e:	f7 01       	movw	r30, r14
 150:	60 81       	ld	r22, Z
 152:	c8 01       	movw	r24, r16
 154:	70 e0       	ldi	r23, 0x00	; 0
 156:	a6 01       	movw	r20, r12
 158:	0e 94 00 00 	call	0	; 0x0 <_ZN18IOExpanderMCP23X1714continuousReadEv>
 15c:	1f 91       	pop	r17
 15e:	0f 91       	pop	r16
 160:	ff 90       	pop	r15
 162:	ef 90       	pop	r14
 164:	df 90       	pop	r13
 166:	cf 90       	pop	r12
 168:	bf 90       	pop	r11
 16a:	08 95       	ret

0000016c <_ZN18IOExpanderMCP23X1720continuousWriteStartENS_8RegisterE>:
 16c:	df 92       	push	r13
 16e:	ef 92       	push	r14
 170:	ff 92       	push	r15
 172:	0f 93       	push	r16
 174:	1f 93       	push	r17
 176:	8c 01       	movw	r16, r24
 178:	d6 2e       	mov	r13, r22
 17a:	6f ef       	ldi	r22, 0xFF	; 255
 17c:	0e 94 00 00 	call	0	; 0x0 <_ZN18IOExpanderMCP23X1714continuousReadEv>
 180:	80 e0       	ldi	r24, 0x00	; 0
 182:	e8 2e       	mov	r14, r24
 184:	80 e0       	ldi	r24, 0x00	; 0
 186:	f8 2e       	mov	r15, r24
 188:	c7 01       	movw	r24, r14
 18a:	f8 01       	movw	r30, r16
 18c:	60 81       	ld	r22, Z
 18e:	0e 94 00 00 	call	0	; 0x0 <_ZN18IOExpanderMCP23X1714continuousReadEv>
 192:	c7 01       	movw	r24, r14
 194:	6d 2d       	mov	r22, r13
 196:	0e 94 00 00 	call	0	; 0x0 <_ZN18IOExpanderMCP23X1714continuousReadEv>
 19a:	1f 91       	pop	r17
 19c:	0f 91       	pop	r16
 19e:	ff 90       	pop	r15
 1a0:	ef 90       	pop	r14
 1a2:	df 90       	pop	r13
 1a4:	08 95       	ret

000001a6 <_ZN18IOExpanderMCP23X1715setPinInterruptEhb>:
 1a6:	68 30       	cpi	r22, 0x08	; 8
 1a8:	00 f0       	brcs	.+0      	; 0x1aa <_ZN18IOExpanderMCP23X1715setPinInterruptEhb+0x4>
 1aa:	35 e0       	ldi	r19, 0x05	; 5
 1ac:	00 c0       	rjmp	.+0      	; 0x1ae <_ZN18IOExpanderMCP23X1715setPinInterruptEhb+0x8>
 1ae:	34 e0       	ldi	r19, 0x04	; 4
 1b0:	44 23       	and	r20, r20
 1b2:	01 f4       	brne	.+0      	; 0x1b4 <_ZN18IOExpanderMCP23X1715setPinInterruptEhb+0xe>
 1b4:	20 e0       	ldi	r18, 0x00	; 0
 1b6:	00 c0       	rjmp	.+0      	; 0x1b8 <_ZN18IOExpanderMCP23X1715setPinInterruptEhb+0x12>
 1b8:	2f ef       	ldi	r18, 0xFF	; 255
 1ba:	67 70       	andi	r22, 0x07	; 7
 1bc:	41 e0       	ldi	r20, 0x01	; 1
 1be:	50 e0       	ldi	r21, 0x00	; 0
 1c0:	00 c0       	rjmp	.+0      	; 0x1c2 <_ZN18IOExpanderMCP23X1715setPinInterruptEhb+0x1c>
 1c2:	44 0f       	add	r20, r20
 1c4:	55 1f       	adc	r21, r21
 1c6:	6a 95       	dec	r22
 1c8:	02 f4       	brpl	.+0      	; 0x1ca <_ZN18IOExpanderMCP23X1715setPinInterruptEhb+0x24>
 1ca:	63 2f       	mov	r22, r19
 1cc:	0e 94 00 00 	call	0	; 0x0 <_ZN18IOExpanderMCP23X1714continuousReadEv>
 1d0:	08 95       	ret

000001d2 <_ZN18IOExpanderMCP23X1714setPinPolarityEhb>:
 1d2:	68 30       	cpi	r22, 0x08	; 8
 1d4:	00 f0       	brcs	.+0      	; 0x1d6 <_ZN18IOExpanderMCP23X1714setPinPolarityEhb+0x4>
 1d6:	33 e0       	ldi	r19, 0x03	; 3
 1d8:	00 c0       	rjmp	.+0      	; 0x1da <_ZN18IOExpanderMCP23X1714setPinPolarityEhb+0x8>
 1da:	32 e0       	ldi	r19, 0x02	; 2
 1dc:	44 23       	and	r20, r20
 1de:	01 f4       	brne	.+0      	; 0x1e0 <_ZN18IOExpanderMCP23X1714setPinPolarityEhb+0xe>
 1e0:	20 e0       	ldi	r18, 0x00	; 0
 1e2:	00 c0       	rjmp	.+0      	; 0x1e4 <_ZN18IOExpanderMCP23X1714setPinPolarityEhb+0x12>
 1e4:	2f ef       	ldi	r18, 0xFF	; 255
 1e6:	67 70       	andi	r22, 0x07	; 7
 1e8:	41 e0       	ldi	r20, 0x01	; 1
 1ea:	50 e0       	ldi	r21, 0x00	; 0
 1ec:	00 c0       	rjmp	.+0      	; 0x1ee <_ZN18IOExpanderMCP23X1714setPinPolarityEhb+0x1c>
 1ee:	44 0f       	add	r20, r20
 1f0:	55 1f       	adc	r21, r21
 1f2:	6a 95       	dec	r22
 1f4:	02 f4       	brpl	.+0      	; 0x1f6 <_ZN18IOExpanderMCP23X1714setPinPolarityEhb+0x24>
 1f6:	63 2f       	mov	r22, r19
 1f8:	0e 94 00 00 	call	0	; 0x0 <_ZN18IOExpanderMCP23X1714continuousReadEv>
 1fc:	08 95       	ret

000001fe <_ZN18IOExpanderMCP23X1712setPinPullUpEhb>:
 1fe:	68 30       	cpi	r22, 0x08	; 8
 200:	00 f0       	brcs	.+0      	; 0x202 <_ZN18IOExpanderMCP23X1712setPinPullUpEhb+0x4>
 202:	3d e0       	ldi	r19, 0x0D	; 13
 204:	00 c0       	rjmp	.+0      	; 0x206 <_ZN18IOExpanderMCP23X1712setPinPullUpEhb+0x8>
 206:	3c e0       	ldi	r19, 0x0C	; 12
 208:	44 23       	and	r20, r20
 20a:	01 f4       	brne	.+0      	; 0x20c <_ZN18IOExpanderMCP23X1712setPinPullUpEhb+0xe>
 20c:	20 e0       	ldi	r18, 0x00	; 0
 20e:	00 c0       	rjmp	.+0      	; 0x210 <_ZN18IOExpanderMCP23X1712setPinPullUpEhb+0x12>
 210:	2f ef       	ldi	r18, 0xFF	; 255
 212:	67 70       	andi	r22, 0x07	; 7
 214:	41 e0       	ldi	r20, 0x01	; 1
 216:	50 e0       	ldi	r21, 0x00	; 0
 218:	00 c0       	rjmp	.+0      	; 0x21a <_ZN18IOExpanderMCP23X1712setPinPullUpEhb+0x1c>
 21a:	44 0f       	add	r20, r20
 21c:	55 1f       	adc	r21, r21
 21e:	6a 95       	dec	r22
 220:	02 f4       	brpl	.+0      	; 0x222 <_ZN18IOExpanderMCP23X1712setPinPullUpEhb+0x24>
 222:	63 2f       	mov	r22, r19
 224:	0e 94 00 00 	call	0	; 0x0 <_ZN18IOExpanderMCP23X1714continuousReadEv>
 228:	08 95       	ret

0000022a <_ZN18IOExpanderMCP23X1712digitalWriteEhb>:
 22a:	68 30       	cpi	r22, 0x08	; 8
 22c:	00 f0       	brcs	.+0      	; 0x22e <_ZN18IOExpanderMCP23X1712digitalWriteEhb+0x4>
 22e:	33 e1       	ldi	r19, 0x13	; 19
 230:	00 c0       	rjmp	.+0      	; 0x232 <_ZN18IOExpanderMCP23X1712digitalWriteEhb+0x8>
 232:	32 e1       	ldi	r19, 0x12	; 18
 234:	44 23       	and	r20, r20
 236:	01 f4       	brne	.+0      	; 0x238 <_ZN18IOExpanderMCP23X1712digitalWriteEhb+0xe>
 238:	20 e0       	ldi	r18, 0x00	; 0
 23a:	00 c0       	rjmp	.+0      	; 0x23c <_ZN18IOExpanderMCP23X1712digitalWriteEhb+0x12>
 23c:	2f ef       	ldi	r18, 0xFF	; 255
 23e:	67 70       	andi	r22, 0x07	; 7
 240:	41 e0       	ldi	r20, 0x01	; 1
 242:	50 e0       	ldi	r21, 0x00	; 0
 244:	00 c0       	rjmp	.+0      	; 0x246 <_ZN18IOExpanderMCP23X1712digitalWriteEhb+0x1c>
 246:	44 0f       	add	r20, r20
 248:	55 1f       	adc	r21, r21
 24a:	6a 95       	dec	r22
 24c:	02 f4       	brpl	.+0      	; 0x24e <_ZN18IOExpanderMCP23X1712digitalWriteEhb+0x24>
 24e:	63 2f       	mov	r22, r19
 250:	0e 94 00 00 	call	0	; 0x0 <_ZN18IOExpanderMCP23X1714continuousReadEv>
 254:	08 95       	ret

00000256 <_ZN18IOExpanderMCP23X177pinModeEhb>:
 256:	44 23       	and	r20, r20
 258:	01 f4       	brne	.+0      	; 0x25a <_ZN18IOExpanderMCP23X177pinModeEhb+0x4>
 25a:	20 e0       	ldi	r18, 0x00	; 0
 25c:	00 c0       	rjmp	.+0      	; 0x25e <_ZN18IOExpanderMCP23X177pinModeEhb+0x8>
 25e:	2f ef       	ldi	r18, 0xFF	; 255
 260:	30 e0       	ldi	r19, 0x00	; 0
 262:	68 30       	cpi	r22, 0x08	; 8
 264:	00 f0       	brcs	.+0      	; 0x266 <_ZN18IOExpanderMCP23X177pinModeEhb+0x10>
 266:	31 e0       	ldi	r19, 0x01	; 1
 268:	67 70       	andi	r22, 0x07	; 7
 26a:	41 e0       	ldi	r20, 0x01	; 1
 26c:	50 e0       	ldi	r21, 0x00	; 0
 26e:	00 c0       	rjmp	.+0      	; 0x270 <_ZN18IOExpanderMCP23X177pinModeEhb+0x1a>
 270:	44 0f       	add	r20, r20
 272:	55 1f       	adc	r21, r21
 274:	6a 95       	dec	r22
 276:	02 f4       	brpl	.+0      	; 0x278 <_ZN18IOExpanderMCP23X177pinModeEhb+0x22>
 278:	63 2f       	mov	r22, r19
 27a:	0e 94 00 00 	call	0	; 0x0 <_ZN18IOExpanderMCP23X1714continuousReadEv>
 27e:	08 95       	ret

00000280 <_ZN18IOExpanderMCP23X178portModeENS_4PortEh>:
 280:	20 e0       	ldi	r18, 0x00	; 0
 282:	62 31       	cpi	r22, 0x12	; 18
 284:	01 f0       	breq	.+0      	; 0x286 <_ZN18IOExpanderMCP23X178portModeENS_4PortEh+0x6>
 286:	21 e0       	ldi	r18, 0x01	; 1
 288:	62 2f       	mov	r22, r18
 28a:	0e 94 00 00 	call	0	; 0x0 <_ZN18IOExpanderMCP23X1714continuousReadEv>
 28e:	08 95       	ret

00000290 <_ZN18IOExpanderMCP23X175beginEh>:
 290:	fc 01       	movw	r30, r24
 292:	86 2f       	mov	r24, r22
 294:	87 70       	andi	r24, 0x07	; 7
 296:	80 62       	ori	r24, 0x20	; 32
 298:	80 83       	st	Z, r24
 29a:	11 82       	std	Z+1, r1	; 0x01
 29c:	80 e0       	ldi	r24, 0x00	; 0
 29e:	90 e0       	ldi	r25, 0x00	; 0
 2a0:	0e 94 00 00 	call	0	; 0x0 <_ZN18IOExpanderMCP23X1714continuousReadEv>
 2a4:	08 95       	ret

IOExpander.o:     file format elf32-avr

Sections:
Idx Name          Size      VMA       LMA       File off  Algn
  0 .text         00000000  00000000  00000000  00000034  2**0
                  CONTENTS, ALLOC, LOAD, READONLY, CODE
  1 .data         00000000  00000000  00000000  00000034  2**0
                  CONTENTS, ALLOC, LOAD, DATA
  2 .bss          00000000  00000000  00000000  00000034  2**0
                  ALLOC
